; ModuleID = '35/266.c'
source_filename = "35/266.c"
target datalayout = "e-m:e-p270:32:32-p271:32:32-p272:64:64-i64:64-f80:128-n8:16:32:64-S128"
target triple = "x86_64-pc-linux-gnu"

@.str = private unnamed_addr constant [6 x i8] c"%d,%d\00", align 1
@.str.1 = private unnamed_addr constant [3 x i8] c"%d\00", align 1
@.str.2 = private unnamed_addr constant [2 x i8] c"\0A\00", align 1
@.str.3 = private unnamed_addr constant [7 x i8] c"%d+%d\0A\00", align 1
@.str.4 = private unnamed_addr constant [4 x i8] c"No\0A\00", align 1

; Function Attrs: noinline nounwind uwtable
define dso_local i32 @main() #0 {
  %1 = alloca i32, align 4
  %2 = alloca i32, align 4
  %3 = alloca i32, align 4
  %4 = alloca i32, align 4
  %5 = alloca i32, align 4
  %6 = alloca i32, align 4
  %7 = alloca i32, align 4
  %8 = alloca i32, align 4
  %9 = alloca i32, align 4
  %10 = alloca [8 x [8 x i32]], align 16
  store i32 0, i32* %1, align 4
  store i32 0, i32* %8, align 4
  store i32 0, i32* %9, align 4
  %11 = bitcast [8 x [8 x i32]]* %10 to i8*
  call void @llvm.memset.p0i8.i64(i8* align 16 %11, i8 0, i64 256, i1 false)
  %12 = call i32 (i8*, ...) @__isoc99_scanf(i8* getelementptr inbounds ([6 x i8], [6 x i8]* @.str, i64 0, i64 0), i32* %4, i32* %5)
  store i32 0, i32* %2, align 4
  br label %13

13:                                               ; preds = %35, %0
  %14 = load i32, i32* %2, align 4
  %15 = load i32, i32* %4, align 4
  %16 = icmp slt i32 %14, %15
  br i1 %16, label %17, label %38

17:                                               ; preds = %13
  store i32 0, i32* %3, align 4
  br label %18

18:                                               ; preds = %30, %17
  %19 = load i32, i32* %3, align 4
  %20 = load i32, i32* %5, align 4
  %21 = icmp slt i32 %19, %20
  br i1 %21, label %22, label %33

22:                                               ; preds = %18
  %23 = load i32, i32* %2, align 4
  %24 = sext i32 %23 to i64
  %25 = getelementptr inbounds [8 x [8 x i32]], [8 x [8 x i32]]* %10, i64 0, i64 %24
  %26 = load i32, i32* %3, align 4
  %27 = sext i32 %26 to i64
  %28 = getelementptr inbounds [8 x i32], [8 x i32]* %25, i64 0, i64 %27
  %29 = call i32 (i8*, ...) @__isoc99_scanf(i8* getelementptr inbounds ([3 x i8], [3 x i8]* @.str.1, i64 0, i64 0), i32* %28)
  br label %30

30:                                               ; preds = %22
  %31 = load i32, i32* %3, align 4
  %32 = add nsw i32 %31, 1
  store i32 %32, i32* %3, align 4
  br label %18

33:                                               ; preds = %18
  %34 = call i32 (i8*, ...) @printf(i8* getelementptr inbounds ([2 x i8], [2 x i8]* @.str.2, i64 0, i64 0))
  br label %35

35:                                               ; preds = %33
  %36 = load i32, i32* %2, align 4
  %37 = add nsw i32 %36, 1
  store i32 %37, i32* %2, align 4
  br label %13

38:                                               ; preds = %13
  %39 = getelementptr inbounds [8 x [8 x i32]], [8 x [8 x i32]]* %10, i64 0, i64 0
  %40 = getelementptr inbounds [8 x i32], [8 x i32]* %39, i64 0, i64 0
  %41 = load i32, i32* %40, align 16
  store i32 %41, i32* %6, align 4
  store i32 0, i32* %3, align 4
  br label %42

42:                                               ; preds = %62, %38
  %43 = load i32, i32* %3, align 4
  %44 = load i32, i32* %5, align 4
  %45 = icmp slt i32 %43, %44
  br i1 %45, label %46, label %65

46:                                               ; preds = %42
  %47 = getelementptr inbounds [8 x [8 x i32]], [8 x [8 x i32]]* %10, i64 0, i64 0
  %48 = load i32, i32* %3, align 4
  %49 = sext i32 %48 to i64
  %50 = getelementptr inbounds [8 x i32], [8 x i32]* %47, i64 0, i64 %49
  %51 = load i32, i32* %50, align 4
  %52 = load i32, i32* %6, align 4
  %53 = icmp sgt i32 %51, %52
  br i1 %53, label %54, label %61

54:                                               ; preds = %46
  %55 = getelementptr inbounds [8 x [8 x i32]], [8 x [8 x i32]]* %10, i64 0, i64 0
  %56 = load i32, i32* %3, align 4
  %57 = sext i32 %56 to i64
  %58 = getelementptr inbounds [8 x i32], [8 x i32]* %55, i64 0, i64 %57
  %59 = load i32, i32* %58, align 4
  store i32 %59, i32* %6, align 4
  %60 = load i32, i32* %3, align 4
  store i32 %60, i32* %9, align 4
  br label %61

61:                                               ; preds = %54, %46
  br label %62

62:                                               ; preds = %61
  %63 = load i32, i32* %3, align 4
  %64 = add nsw i32 %63, 1
  store i32 %64, i32* %3, align 4
  br label %42

65:                                               ; preds = %42
  store i32 0, i32* %2, align 4
  %66 = getelementptr inbounds [8 x [8 x i32]], [8 x [8 x i32]]* %10, i64 0, i64 0
  %67 = load i32, i32* %9, align 4
  %68 = sext i32 %67 to i64
  %69 = getelementptr inbounds [8 x i32], [8 x i32]* %66, i64 0, i64 %68
  %70 = load i32, i32* %69, align 4
  store i32 %70, i32* %7, align 4
  br label %71

71:                                               ; preds = %95, %65
  %72 = load i32, i32* %2, align 4
  %73 = load i32, i32* %4, align 4
  %74 = icmp slt i32 %72, %73
  br i1 %74, label %75, label %98

75:                                               ; preds = %71
  %76 = load i32, i32* %2, align 4
  %77 = sext i32 %76 to i64
  %78 = getelementptr inbounds [8 x [8 x i32]], [8 x [8 x i32]]* %10, i64 0, i64 %77
  %79 = load i32, i32* %9, align 4
  %80 = sext i32 %79 to i64
  %81 = getelementptr inbounds [8 x i32], [8 x i32]* %78, i64 0, i64 %80
  %82 = load i32, i32* %81, align 4
  %83 = load i32, i32* %7, align 4
  %84 = icmp slt i32 %82, %83
  br i1 %84, label %85, label %94

85:                                               ; preds = %75
  %86 = load i32, i32* %2, align 4
  %87 = sext i32 %86 to i64
  %88 = getelementptr inbounds [8 x [8 x i32]], [8 x [8 x i32]]* %10, i64 0, i64 %87
  %89 = load i32, i32* %9, align 4
  %90 = sext i32 %89 to i64
  %91 = getelementptr inbounds [8 x i32], [8 x i32]* %88, i64 0, i64 %90
  %92 = load i32, i32* %91, align 4
  store i32 %92, i32* %7, align 4
  %93 = load i32, i32* %2, align 4
  store i32 %93, i32* %8, align 4
  br label %94

94:                                               ; preds = %85, %75
  br label %95

95:                                               ; preds = %94
  %96 = load i32, i32* %2, align 4
  %97 = add nsw i32 %96, 1
  store i32 %97, i32* %2, align 4
  br label %71

98:                                               ; preds = %71
  %99 = load i32, i32* %7, align 4
  %100 = load i32, i32* %6, align 4
  %101 = icmp eq i32 %99, %100
  br i1 %101, label %102, label %106

102:                                              ; preds = %98
  %103 = load i32, i32* %8, align 4
  %104 = load i32, i32* %9, align 4
  %105 = call i32 (i8*, ...) @printf(i8* getelementptr inbounds ([7 x i8], [7 x i8]* @.str.3, i64 0, i64 0), i32 %103, i32 %104)
  br label %108

106:                                              ; preds = %98
  %107 = call i32 (i8*, ...) @printf(i8* getelementptr inbounds ([4 x i8], [4 x i8]* @.str.4, i64 0, i64 0))
  br label %108

108:                                              ; preds = %106, %102
  ret i32 0
}

; Function Attrs: argmemonly nounwind willreturn
declare void @llvm.memset.p0i8.i64(i8* nocapture writeonly, i8, i64, i1 immarg) #1

declare dso_local i32 @__isoc99_scanf(i8*, ...) #2

declare dso_local i32 @printf(i8*, ...) #2


!llvm.module.flags = !{!0}
!llvm.ident = !{!1}

!0 = !{i32 1, !"wchar_size", i32 4}
!1 = !{!"clang version 10.0.0-4ubuntu1 "}
